target datalayout = "e-m:e-p270:32:32-p271:32:32-p272:64:64-i64:64-i128:128-f80:128-n8:16:32:64-S128"
target triple = "x86_64-pc-linux-gnu"

%struct.SurfaceDataRasInfo = type { %struct.SurfaceDataBounds, ptr, i32, i32, i32, i32, ptr, ptr, ptr, ptr, ptr, ptr, i32, %union.anon.0 }
%struct.SurfaceDataBounds = type { i32, i32, i32, i32 }
%union.anon.0 = type { ptr, [56 x i8] }
%struct.SpanIteratorFuncs = type { ptr, ptr, ptr, ptr, ptr, ptr }

; Function Attrs: nounwind uwtable
define hidden void @ByteBinary4BitSetSpans(ptr noundef %0, ptr noundef %1, ptr noundef %2, i32 noundef %3, ptr noundef %4, ptr noundef %5) #0 {
  %7 = alloca ptr, align 8
  %8 = alloca ptr, align 8
  %9 = alloca ptr, align 8
  %10 = alloca i32, align 4
  %11 = alloca ptr, align 8
  %12 = alloca ptr, align 8
  %13 = alloca ptr, align 8
  %14 = alloca i32, align 4
  %15 = alloca [4 x i32], align 16
  %16 = alloca i32, align 4
  %17 = alloca i32, align 4
  %18 = alloca i32, align 4
  %19 = alloca i32, align 4
  %20 = alloca ptr, align 8
  %21 = alloca i32, align 4
  %22 = alloca i32, align 4
  %23 = alloca i32, align 4
  %24 = alloca i32, align 4
  %25 = alloca i32, align 4
  store ptr %0, ptr %7, align 8
  store ptr %1, ptr %8, align 8
  store ptr %2, ptr %9, align 8
  store i32 %3, ptr %10, align 4
  store ptr %4, ptr %11, align 8
  store ptr %5, ptr %12, align 8
  %26 = load ptr, ptr %7, align 8
  %27 = getelementptr inbounds %struct.SurfaceDataRasInfo, ptr %26, i32 0, i32 1
  %28 = load ptr, ptr %27, align 8
  store ptr %28, ptr %13, align 8
  %29 = load ptr, ptr %7, align 8
  %30 = getelementptr inbounds %struct.SurfaceDataRasInfo, ptr %29, i32 0, i32 4
  %31 = load i32, ptr %30, align 8
  store i32 %31, ptr %14, align 4
  br label %32

32:                                               ; preds = %141, %6
  %33 = load ptr, ptr %8, align 8
  %34 = getelementptr inbounds %struct.SpanIteratorFuncs, ptr %33, i32 0, i32 4
  %35 = load ptr, ptr %34, align 8
  %36 = load ptr, ptr %9, align 8
  %37 = getelementptr inbounds [4 x i32], ptr %15, i64 0, i64 0
  %38 = call zeroext i8 %35(ptr noundef %36, ptr noundef %37)
  %39 = icmp ne i8 %38, 0
  br i1 %39, label %40, label %142

40:                                               ; preds = %32
  %41 = getelementptr inbounds [4 x i32], ptr %15, i64 0, i64 0
  %42 = load i32, ptr %41, align 16
  store i32 %42, ptr %16, align 4
  %43 = getelementptr inbounds [4 x i32], ptr %15, i64 0, i64 1
  %44 = load i32, ptr %43, align 4
  store i32 %44, ptr %17, align 4
  %45 = getelementptr inbounds [4 x i32], ptr %15, i64 0, i64 2
  %46 = load i32, ptr %45, align 8
  %47 = load i32, ptr %16, align 4
  %48 = sub nsw i32 %46, %47
  store i32 %48, ptr %18, align 4
  %49 = getelementptr inbounds [4 x i32], ptr %15, i64 0, i64 3
  %50 = load i32, ptr %49, align 4
  %51 = load i32, ptr %17, align 4
  %52 = sub nsw i32 %50, %51
  store i32 %52, ptr %19, align 4
  %53 = load ptr, ptr %13, align 8
  %54 = ptrtoint ptr %53 to i64
  %55 = load i32, ptr %17, align 4
  %56 = sext i32 %55 to i64
  %57 = load i32, ptr %14, align 4
  %58 = sext i32 %57 to i64
  %59 = mul nsw i64 %56, %58
  %60 = load i32, ptr %16, align 4
  %61 = sext i32 %60 to i64
  %62 = mul nsw i64 %61, 0
  %63 = add nsw i64 %59, %62
  %64 = add nsw i64 %54, %63
  %65 = inttoptr i64 %64 to ptr
  store ptr %65, ptr %20, align 8
  br label %66

66:                                               ; preds = %137, %40
  %67 = load i32, ptr %16, align 4
  %68 = load ptr, ptr %7, align 8
  %69 = getelementptr inbounds %struct.SurfaceDataRasInfo, ptr %68, i32 0, i32 2
  %70 = load i32, ptr %69, align 8
  %71 = sdiv i32 %70, 4
  %72 = add nsw i32 %67, %71
  store i32 %72, ptr %21, align 4
  %73 = load i32, ptr %21, align 4
  %74 = sdiv i32 %73, 2
  store i32 %74, ptr %22, align 4
  %75 = load i32, ptr %21, align 4
  %76 = srem i32 %75, 2
  %77 = mul nsw i32 %76, 4
  %78 = sub nsw i32 4, %77
  store i32 %78, ptr %23, align 4
  %79 = load ptr, ptr %20, align 8
  %80 = load i32, ptr %22, align 4
  %81 = sext i32 %80 to i64
  %82 = getelementptr inbounds i8, ptr %79, i64 %81
  %83 = load i8, ptr %82, align 1
  %84 = zext i8 %83 to i32
  store i32 %84, ptr %24, align 4
  %85 = load i32, ptr %18, align 4
  store i32 %85, ptr %25, align 4
  br label %86

86:                                               ; preds = %120, %66
  br label %87

87:                                               ; preds = %86
  %88 = load i32, ptr %23, align 4
  %89 = icmp slt i32 %88, 0
  br i1 %89, label %90, label %104

90:                                               ; preds = %87
  %91 = load i32, ptr %24, align 4
  %92 = trunc i32 %91 to i8
  %93 = load ptr, ptr %20, align 8
  %94 = load i32, ptr %22, align 4
  %95 = sext i32 %94 to i64
  %96 = getelementptr inbounds i8, ptr %93, i64 %95
  store i8 %92, ptr %96, align 1
  %97 = load ptr, ptr %20, align 8
  %98 = load i32, ptr %22, align 4
  %99 = add nsw i32 %98, 1
  store i32 %99, ptr %22, align 4
  %100 = sext i32 %99 to i64
  %101 = getelementptr inbounds i8, ptr %97, i64 %100
  %102 = load i8, ptr %101, align 1
  %103 = zext i8 %102 to i32
  store i32 %103, ptr %24, align 4
  store i32 4, ptr %23, align 4
  br label %104

104:                                              ; preds = %90, %87
  br label %105

105:                                              ; preds = %104
  br label %106

106:                                              ; preds = %105
  %107 = load i32, ptr %23, align 4
  %108 = shl i32 15, %107
  %109 = xor i32 %108, -1
  %110 = load i32, ptr %24, align 4
  %111 = and i32 %110, %109
  store i32 %111, ptr %24, align 4
  %112 = load i32, ptr %10, align 4
  %113 = load i32, ptr %23, align 4
  %114 = shl i32 %112, %113
  %115 = load i32, ptr %24, align 4
  %116 = or i32 %115, %114
  store i32 %116, ptr %24, align 4
  br label %117

117:                                              ; preds = %106
  %118 = load i32, ptr %23, align 4
  %119 = sub nsw i32 %118, 4
  store i32 %119, ptr %23, align 4
  br label %120

120:                                              ; preds = %117
  %121 = load i32, ptr %25, align 4
  %122 = add nsw i32 %121, -1
  store i32 %122, ptr %25, align 4
  %123 = icmp sgt i32 %122, 0
  br i1 %123, label %86, label %124, !llvm.loop !9

124:                                              ; preds = %120
  %125 = load i32, ptr %24, align 4
  %126 = trunc i32 %125 to i8
  %127 = load ptr, ptr %20, align 8
  %128 = load i32, ptr %22, align 4
  %129 = sext i32 %128 to i64
  %130 = getelementptr inbounds i8, ptr %127, i64 %129
  store i8 %126, ptr %130, align 1
  %131 = load ptr, ptr %20, align 8
  %132 = ptrtoint ptr %131 to i64
  %133 = load i32, ptr %14, align 4
  %134 = sext i32 %133 to i64
  %135 = add nsw i64 %132, %134
  %136 = inttoptr i64 %135 to ptr
  store ptr %136, ptr %20, align 8
  br label %137

137:                                              ; preds = %124
  %138 = load i32, ptr %19, align 4
  %139 = add i32 %138, -1
  store i32 %139, ptr %19, align 4
  %140 = icmp ugt i32 %139, 0
  br i1 %140, label %66, label %141, !llvm.loop !10

141:                                              ; preds = %137
  br label %32, !llvm.loop !11

142:                                              ; preds = %32
  ret void
}