; Function Attrs: nounwind uwtable
define hidden void @ByteBinary4BitSetSpans(ptr nocapture noundef readonly %0, ptr nocapture noundef readonly %1, ptr noundef %2, i32 noundef %3, ptr nocapture readnone %4, ptr nocapture readnone %5) #1 {
  %7 = alloca [4 x i32], align 16
  %8 = getelementptr inbounds i8, ptr %0, i64 16
  %9 = load ptr, ptr %8, align 8
  %10 = getelementptr inbounds i8, ptr %0, i64 32
  %11 = load i32, ptr %10, align 8
  %12 = getelementptr inbounds i8, ptr %1, i64 32
  %13 = load ptr, ptr %12, align 8
  %14 = call zeroext i8 %13(ptr noundef %2, ptr noundef nonnull %7) #5
  %.not45 = icmp eq i8 %14, 0
  br i1 %.not45, label %._crit_edge, label %.lr.ph

.lr.ph:                                           ; preds = %6
  %15 = getelementptr inbounds i8, ptr %7, i64 4
  %16 = getelementptr inbounds i8, ptr %7, i64 8
  %17 = getelementptr inbounds i8, ptr %7, i64 12
  %18 = ptrtoint ptr %9 to i64
  %19 = sext i32 %11 to i64
  %20 = getelementptr inbounds i8, ptr %0, i64 24
  br label %21

21:                                               ; preds = %.lr.ph, %69
  %22 = load i32, ptr %7, align 16
  %23 = load i32, ptr %15, align 4
  %24 = load i32, ptr %16, align 8
  %25 = sub nsw i32 %24, %22
  %26 = load i32, ptr %17, align 4
  %27 = sub nsw i32 %26, %23
  %28 = sext i32 %23 to i64
  %29 = mul nsw i64 %28, %19
  %30 = add nsw i64 %29, %18
  br label %31

31:                                               ; preds = %63, %21
  %.041.in = phi i64 [ %30, %21 ], [ %67, %63 ]
  %.040 = phi i32 [ %27, %21 ], [ %68, %63 ]
  %.041 = inttoptr i64 %.041.in to ptr
  %32 = load i32, ptr %20, align 8
  %33 = sdiv i32 %32, 4
  %34 = add nsw i32 %33, %22
  %35 = sdiv i32 %34, 2
  %36 = srem i32 %34, 2
  %37 = shl nsw i32 %36, 2
  %38 = sub nsw i32 4, %37
  %39 = sext i32 %35 to i64
  %40 = getelementptr inbounds i8, ptr %.041, i64 %39
  %41 = load i8, ptr %40, align 1
  %42 = zext i8 %41 to i32
  br label %43

43:                                               ; preds = %54, %31
  %.038 = phi i32 [ %35, %31 ], [ %.139, %54 ]
  %.036 = phi i32 [ %38, %31 ], [ %60, %54 ]
  %.035 = phi i32 [ %42, %31 ], [ %59, %54 ]
  %.0 = phi i32 [ %25, %31 ], [ %61, %54 ]
  %44 = icmp slt i32 %.036, 0
  br i1 %44, label %45, label %54

45:                                               ; preds = %43
  %46 = trunc i32 %.035 to i8
  %47 = sext i32 %.038 to i64
  %48 = getelementptr inbounds i8, ptr %.041, i64 %47
  store i8 %46, ptr %48, align 1
  %49 = add nsw i32 %.038, 1
  %50 = sext i32 %49 to i64
  %51 = getelementptr inbounds i8, ptr %.041, i64 %50
  %52 = load i8, ptr %51, align 1
  %53 = zext i8 %52 to i32
  br label %54

54:                                               ; preds = %45, %43
  %.139 = phi i32 [ %49, %45 ], [ %.038, %43 ]
  %.137 = phi i32 [ 4, %45 ], [ %.036, %43 ]
  %.1 = phi i32 [ %53, %45 ], [ %.035, %43 ]
  %55 = shl nuw nsw i32 15, %.137
  %56 = xor i32 %55, -1
  %57 = and i32 %.1, %56
  %58 = shl i32 %3, %.137
  %59 = or i32 %57, %58
  %60 = add nsw i32 %.137, -4
  %61 = add nsw i32 %.0, -1
  %62 = icmp sgt i32 %.0, 1
  br i1 %62, label %43, label %63, !llvm.loop !9

63:                                               ; preds = %54
  %64 = trunc i32 %59 to i8
  %65 = sext i32 %.139 to i64
  %66 = getelementptr inbounds i8, ptr %.041, i64 %65
  store i8 %64, ptr %66, align 1
  %67 = add nsw i64 %.041.in, %19
  %68 = add i32 %.040, -1
  %.not44 = icmp eq i32 %68, 0
  br i1 %.not44, label %69, label %31, !llvm.loop !10

69:                                               ; preds = %63
  %70 = load ptr, ptr %12, align 8
  %71 = call zeroext i8 %70(ptr noundef %2, ptr noundef nonnull %7) #5
  %.not = icmp eq i8 %71, 0
  br i1 %.not, label %._crit_edge, label %21, !llvm.loop !11

._crit_edge:                                      ; preds = %69, %6
  ret void
}